; Function Attrs: mustprogress uwtable
define dso_local noundef zeroext i1 @_ZN3igl6opengl4glfw6Viewer6key_upEii(ptr noundef nonnull align 16 dereferenceable(616) %0, i32 noundef %1, i32 noundef %2) local_unnamed_addr #0 align 2 {
  %4 = alloca i32, align 4
  %5 = alloca i32, align 4
  %6 = getelementptr inbounds nuw i8, ptr %0, i64 96
  %7 = getelementptr inbounds nuw i8, ptr %0, i64 104
  %8 = load ptr, ptr %7, align 8, !tbaa !11
  %9 = load ptr, ptr %6, align 16, !tbaa !15
  %.not = icmp eq ptr %8, %9
  br i1 %.not, label %._crit_edge, label %.lr.ph

10:                                               ; preds = %.lr.ph
  %11 = add i32 %.0916, 1
  %12 = zext i32 %11 to i64
  %13 = load ptr, ptr %7, align 8, !tbaa !11
  %14 = load ptr, ptr %6, align 16, !tbaa !15
  %15 = ptrtoint ptr %13 to i64
  %16 = ptrtoint ptr %14 to i64
  %17 = sub i64 %15, %16
  %18 = ashr exact i64 %17, 3
  %19 = icmp ugt i64 %18, %12
  br i1 %19, label %.lr.ph, label %._crit_edge, !llvm.loop !133

.lr.ph:                                           ; preds = %3, %10
  %20 = phi ptr [ %14, %10 ], [ %9, %3 ]
  %21 = phi i64 [ %12, %10 ], [ 0, %3 ]
  %.0916 = phi i32 [ %11, %10 ], [ 0, %3 ]
  %22 = getelementptr inbounds nuw ptr, ptr %20, i64 %21
  %23 = load ptr, ptr %22, align 8, !tbaa !16
  %24 = load ptr, ptr %23, align 8, !tbaa !18
  %25 = getelementptr inbounds nuw i8, ptr %24, i64 144
  %26 = load ptr, ptr %25, align 8
  %27 = tail call noundef zeroext i1 %26(ptr noundef nonnull align 8 dereferenceable(48) %23, i32 noundef %1, i32 noundef %2)
  br i1 %27, label %.loopexit, label %10

._crit_edge:                                      ; preds = %10, %3
  %28 = getelementptr inbounds nuw i8, ptr %0, i64 520
  %29 = load ptr, ptr %28, align 8, !tbaa !71
  %.not.i.i.not = icmp eq ptr %29, null
  br i1 %.not.i.i.not, label %34, label %_ZNKSt8functionIFbRN3igl6opengl4glfw6ViewerEjiEEclES4_ji.exit

_ZNKSt8functionIFbRN3igl6opengl4glfw6ViewerEjiEEclES4_ji.exit: ; preds = %._crit_edge
  %30 = getelementptr inbounds nuw i8, ptr %0, i64 504
  call void @llvm.lifetime.start.p0(i64 4, ptr nonnull %4)
  call void @llvm.lifetime.start.p0(i64 4, ptr nonnull %5)
  store i32 %1, ptr %4, align 4, !tbaa !73
  store i32 %2, ptr %5, align 4, !tbaa !73
  %31 = getelementptr inbounds nuw i8, ptr %0, i64 528
  %32 = load ptr, ptr %31, align 16, !tbaa !132
  %33 = call noundef zeroext i1 %32(ptr noundef nonnull align 8 dereferenceable(32) %30, ptr noundef nonnull align 16 dereferenceable(616) %0, ptr noundef nonnull align 4 dereferenceable(4) %4, ptr noundef nonnull align 4 dereferenceable(4) %5)
  call void @llvm.lifetime.end.p0(i64 4, ptr nonnull %4)
  call void @llvm.lifetime.end.p0(i64 4, ptr nonnull %5)
  br i1 %33, label %.loopexit, label %34

34:                                               ; preds = %_ZNKSt8functionIFbRN3igl6opengl4glfw6ViewerEjiEEclES4_ji.exit, %._crit_edge
  br label %.loopexit

.loopexit:                                        ; preds = %.lr.ph, %_ZNKSt8functionIFbRN3igl6opengl4glfw6ViewerEjiEEclES4_ji.exit, %34
  %.1 = phi i1 [ false, %34 ], [ true, %_ZNKSt8functionIFbRN3igl6opengl4glfw6ViewerEjiEEclES4_ji.exit ], [ true, %.lr.ph ]
  ret i1 %.1
}